; ModuleID = '46/2104.c'
source_filename = "46/2104.c"
target datalayout = "e-m:e-p270:32:32-p271:32:32-p272:64:64-i64:64-f80:128-n8:16:32:64-S128"
target triple = "x86_64-pc-linux-gnu"

@.str = private unnamed_addr constant [6 x i8] c"%d %d\00", align 1
@.str.1 = private unnamed_addr constant [3 x i8] c"%d\00", align 1
@.str.2 = private unnamed_addr constant [4 x i8] c"\0A%d\00", align 1

; Function Attrs: noinline nounwind uwtable
define dso_local void @main() #0 {
  %1 = alloca [100 x [100 x i32]], align 16
  %2 = alloca [100 x i32]*, align 8
  %3 = alloca i32, align 4
  %4 = alloca i32, align 4
  %5 = alloca i32, align 4
  %6 = alloca i32, align 4
  %7 = alloca i32, align 4
  %8 = alloca i32, align 4
  %9 = alloca i32, align 4
  %10 = alloca i32, align 4
  %11 = call i32 (i8*, ...) @__isoc99_scanf(i8* getelementptr inbounds ([6 x i8], [6 x i8]* @.str, i64 0, i64 0), i32* %6, i32* %5)
  %12 = getelementptr inbounds [100 x [100 x i32]], [100 x [100 x i32]]* %1, i64 0, i64 0
  store [100 x i32]* %12, [100 x i32]** %2, align 8
  store i32 0, i32* %3, align 4
  br label %13

13:                                               ; preds = %38, %0
  %14 = load i32, i32* %3, align 4
  %15 = load i32, i32* %6, align 4
  %16 = sub nsw i32 %15, 1
  %17 = icmp sle i32 %14, %16
  br i1 %17, label %18, label %41

18:                                               ; preds = %13
  store i32 0, i32* %4, align 4
  br label %19

19:                                               ; preds = %34, %18
  %20 = load i32, i32* %4, align 4
  %21 = load i32, i32* %5, align 4
  %22 = sub nsw i32 %21, 1
  %23 = icmp sle i32 %20, %22
  br i1 %23, label %24, label %37

24:                                               ; preds = %19
  %25 = load [100 x i32]*, [100 x i32]** %2, align 8
  %26 = load i32, i32* %3, align 4
  %27 = sext i32 %26 to i64
  %28 = getelementptr inbounds [100 x i32], [100 x i32]* %25, i64 %27
  %29 = getelementptr inbounds [100 x i32], [100 x i32]* %28, i64 0, i64 0
  %30 = load i32, i32* %4, align 4
  %31 = sext i32 %30 to i64
  %32 = getelementptr inbounds i32, i32* %29, i64 %31
  %33 = call i32 (i8*, ...) @__isoc99_scanf(i8* getelementptr inbounds ([3 x i8], [3 x i8]* @.str.1, i64 0, i64 0), i32* %32)
  br label %34

34:                                               ; preds = %24
  %35 = load i32, i32* %4, align 4
  %36 = add nsw i32 %35, 1
  store i32 %36, i32* %4, align 4
  br label %19

37:                                               ; preds = %19
  br label %38

38:                                               ; preds = %37
  %39 = load i32, i32* %3, align 4
  %40 = add nsw i32 %39, 1
  store i32 %40, i32* %3, align 4
  br label %13

41:                                               ; preds = %13
  store i32 0, i32* %10, align 4
  %42 = load i32, i32* %5, align 4
  %43 = icmp ne i32 %42, 1
  br i1 %43, label %44, label %186

44:                                               ; preds = %41
  store i32 0, i32* %3, align 4
  br label %45

45:                                               ; preds = %182, %44
  %46 = load i32, i32* %3, align 4
  %47 = load i32, i32* %6, align 4
  %48 = sub nsw i32 %47, 1
  %49 = sdiv i32 %48, 2
  %50 = icmp sle i32 %46, %49
  br i1 %50, label %51, label %185

51:                                               ; preds = %45
  %52 = load i32, i32* %3, align 4
  store i32 %52, i32* %4, align 4
  br label %53

53:                                               ; preds = %178, %51
  %54 = load i32, i32* %4, align 4
  %55 = load i32, i32* %5, align 4
  %56 = sub nsw i32 %55, 1
  %57 = load i32, i32* %3, align 4
  %58 = sub nsw i32 %56, %57
  %59 = icmp sle i32 %54, %58
  br i1 %59, label %60, label %181

60:                                               ; preds = %53
  %61 = load i32, i32* %10, align 4
  %62 = icmp eq i32 %61, 0
  br i1 %62, label %63, label %74

63:                                               ; preds = %60
  %64 = load [100 x i32]*, [100 x i32]** %2, align 8
  %65 = load i32, i32* %3, align 4
  %66 = sext i32 %65 to i64
  %67 = getelementptr inbounds [100 x i32], [100 x i32]* %64, i64 %66
  %68 = getelementptr inbounds [100 x i32], [100 x i32]* %67, i64 0, i64 0
  %69 = load i32, i32* %4, align 4
  %70 = sext i32 %69 to i64
  %71 = getelementptr inbounds i32, i32* %68, i64 %70
  %72 = load i32, i32* %71, align 4
  %73 = call i32 (i8*, ...) @printf(i8* getelementptr inbounds ([3 x i8], [3 x i8]* @.str.1, i64 0, i64 0), i32 %72)
  store i32 1, i32* %10, align 4
  br label %177

74:                                               ; preds = %60
  %75 = load [100 x i32]*, [100 x i32]** %2, align 8
  %76 = load i32, i32* %3, align 4
  %77 = sext i32 %76 to i64
  %78 = getelementptr inbounds [100 x i32], [100 x i32]* %75, i64 %77
  %79 = getelementptr inbounds [100 x i32], [100 x i32]* %78, i64 0, i64 0
  %80 = load i32, i32* %4, align 4
  %81 = sext i32 %80 to i64
  %82 = getelementptr inbounds i32, i32* %79, i64 %81
  %83 = load i32, i32* %82, align 4
  %84 = call i32 (i8*, ...) @printf(i8* getelementptr inbounds ([4 x i8], [4 x i8]* @.str.2, i64 0, i64 0), i32 %83)
  %85 = load i32, i32* %4, align 4
  %86 = load i32, i32* %5, align 4
  %87 = load i32, i32* %3, align 4
  %88 = sub nsw i32 %86, %87
  %89 = sub nsw i32 %88, 1
  %90 = icmp eq i32 %85, %89
  br i1 %90, label %91, label %176

91:                                               ; preds = %74
  %92 = load i32, i32* %3, align 4
  %93 = add nsw i32 %92, 1
  store i32 %93, i32* %9, align 4
  br label %94

94:                                               ; preds = %172, %91
  %95 = load i32, i32* %9, align 4
  %96 = load i32, i32* %6, align 4
  %97 = sub nsw i32 %96, 1
  %98 = load i32, i32* %3, align 4
  %99 = sub nsw i32 %97, %98
  %100 = icmp sle i32 %95, %99
  br i1 %100, label %101, label %175

101:                                              ; preds = %94
  %102 = load [100 x i32]*, [100 x i32]** %2, align 8
  %103 = load i32, i32* %9, align 4
  %104 = sext i32 %103 to i64
  %105 = getelementptr inbounds [100 x i32], [100 x i32]* %102, i64 %104
  %106 = getelementptr inbounds [100 x i32], [100 x i32]* %105, i64 0, i64 0
  %107 = load i32, i32* %4, align 4
  %108 = sext i32 %107 to i64
  %109 = getelementptr inbounds i32, i32* %106, i64 %108
  %110 = load i32, i32* %109, align 4
  %111 = call i32 (i8*, ...) @printf(i8* getelementptr inbounds ([4 x i8], [4 x i8]* @.str.2, i64 0, i64 0), i32 %110)
  %112 = load i32, i32* %9, align 4
  %113 = load i32, i32* %6, align 4
  %114 = sub nsw i32 %113, 1
  %115 = load i32, i32* %3, align 4
  %116 = sub nsw i32 %114, %115
  %117 = icmp eq i32 %112, %116
  br i1 %117, label %118, label %171

118:                                              ; preds = %101
  %119 = load i32, i32* %5, align 4
  %120 = load i32, i32* %3, align 4
  %121 = sub nsw i32 %119, %120
  %122 = sub nsw i32 %121, 2
  store i32 %122, i32* %8, align 4
  br label %123

123:                                              ; preds = %167, %118
  %124 = load i32, i32* %8, align 4
  %125 = load i32, i32* %3, align 4
  %126 = icmp sge i32 %124, %125
  br i1 %126, label %127, label %170

127:                                              ; preds = %123
  %128 = load [100 x i32]*, [100 x i32]** %2, align 8
  %129 = load i32, i32* %9, align 4
  %130 = sext i32 %129 to i64
  %131 = getelementptr inbounds [100 x i32], [100 x i32]* %128, i64 %130
  %132 = getelementptr inbounds [100 x i32], [100 x i32]* %131, i64 0, i64 0
  %133 = load i32, i32* %8, align 4
  %134 = sext i32 %133 to i64
  %135 = getelementptr inbounds i32, i32* %132, i64 %134
  %136 = load i32, i32* %135, align 4
  %137 = call i32 (i8*, ...) @printf(i8* getelementptr inbounds ([4 x i8], [4 x i8]* @.str.2, i64 0, i64 0), i32 %136)
  %138 = load i32, i32* %8, align 4
  %139 = load i32, i32* %3, align 4
  %140 = icmp eq i32 %138, %139
  br i1 %140, label %141, label %166

141:                                              ; preds = %127
  %142 = load i32, i32* %6, align 4
  %143 = load i32, i32* %3, align 4
  %144 = sub nsw i32 %142, %143
  %145 = sub nsw i32 %144, 2
  store i32 %145, i32* %7, align 4
  br label %146

146:                                              ; preds = %162, %141
  %147 = load i32, i32* %7, align 4
  %148 = load i32, i32* %3, align 4
  %149 = add nsw i32 %148, 1
  %150 = icmp sge i32 %147, %149
  br i1 %150, label %151, label %165

151:                                              ; preds = %146
  %152 = load [100 x i32]*, [100 x i32]** %2, align 8
  %153 = load i32, i32* %7, align 4
  %154 = sext i32 %153 to i64
  %155 = getelementptr inbounds [100 x i32], [100 x i32]* %152, i64 %154
  %156 = getelementptr inbounds [100 x i32], [100 x i32]* %155, i64 0, i64 0
  %157 = load i32, i32* %8, align 4
  %158 = sext i32 %157 to i64
  %159 = getelementptr inbounds i32, i32* %156, i64 %158
  %160 = load i32, i32* %159, align 4
  %161 = call i32 (i8*, ...) @printf(i8* getelementptr inbounds ([4 x i8], [4 x i8]* @.str.2, i64 0, i64 0), i32 %160)
  br label %162

162:                                              ; preds = %151
  %163 = load i32, i32* %7, align 4
  %164 = add nsw i32 %163, -1
  store i32 %164, i32* %7, align 4
  br label %146

165:                                              ; preds = %146
  br label %166

166:                                              ; preds = %165, %127
  br label %167

167:                                              ; preds = %166
  %168 = load i32, i32* %8, align 4
  %169 = add nsw i32 %168, -1
  store i32 %169, i32* %8, align 4
  br label %123

170:                                              ; preds = %123
  br label %171

171:                                              ; preds = %170, %101
  br label %172

172:                                              ; preds = %171
  %173 = load i32, i32* %9, align 4
  %174 = add nsw i32 %173, 1
  store i32 %174, i32* %9, align 4
  br label %94

175:                                              ; preds = %94
  br label %176

176:                                              ; preds = %175, %74
  br label %177

177:                                              ; preds = %176, %63
  br label %178

178:                                              ; preds = %177
  %179 = load i32, i32* %4, align 4
  %180 = add nsw i32 %179, 1
  store i32 %180, i32* %4, align 4
  br label %53

181:                                              ; preds = %53
  br label %182

182:                                              ; preds = %181
  %183 = load i32, i32* %3, align 4
  %184 = add nsw i32 %183, 1
  store i32 %184, i32* %3, align 4
  br label %45

185:                                              ; preds = %45
  br label %232

186:                                              ; preds = %41
  store i32 0, i32* %3, align 4
  br label %187

187:                                              ; preds = %228, %186
  %188 = load i32, i32* %3, align 4
  %189 = load i32, i32* %6, align 4
  %190 = sub nsw i32 %189, 1
  %191 = icmp sle i32 %188, %190
  br i1 %191, label %192, label %231

192:                                              ; preds = %187
  store i32 0, i32* %4, align 4
  br label %193

193:                                              ; preds = %224, %192
  %194 = load i32, i32* %4, align 4
  %195 = load i32, i32* %5, align 4
  %196 = sub nsw i32 %195, 1
  %197 = icmp sle i32 %194, %196
  br i1 %197, label %198, label %227

198:                                              ; preds = %193
  %199 = load i32, i32* %10, align 4
  %200 = icmp ne i32 %199, 0
  br i1 %200, label %201, label %212

201:                                              ; preds = %198
  %202 = load [100 x i32]*, [100 x i32]** %2, align 8
  %203 = load i32, i32* %3, align 4
  %204 = sext i32 %203 to i64
  %205 = getelementptr inbounds [100 x i32], [100 x i32]* %202, i64 %204
  %206 = getelementptr inbounds [100 x i32], [100 x i32]* %205, i64 0, i64 0
  %207 = load i32, i32* %4, align 4
  %208 = sext i32 %207 to i64
  %209 = getelementptr inbounds i32, i32* %206, i64 %208
  %210 = load i32, i32* %209, align 4
  %211 = call i32 (i8*, ...) @printf(i8* getelementptr inbounds ([4 x i8], [4 x i8]* @.str.2, i64 0, i64 0), i32 %210)
  br label %223

212:                                              ; preds = %198
  %213 = load [100 x i32]*, [100 x i32]** %2, align 8
  %214 = load i32, i32* %3, align 4
  %215 = sext i32 %214 to i64
  %216 = getelementptr inbounds [100 x i32], [100 x i32]* %213, i64 %215
  %217 = getelementptr inbounds [100 x i32], [100 x i32]* %216, i64 0, i64 0
  %218 = load i32, i32* %4, align 4
  %219 = sext i32 %218 to i64
  %220 = getelementptr inbounds i32, i32* %217, i64 %219
  %221 = load i32, i32* %220, align 4
  %222 = call i32 (i8*, ...) @printf(i8* getelementptr inbounds ([3 x i8], [3 x i8]* @.str.1, i64 0, i64 0), i32 %221)
  store i32 1, i32* %10, align 4
  br label %223

223:                                              ; preds = %212, %201
  br label %224

224:                                              ; preds = %223
  %225 = load i32, i32* %4, align 4
  %226 = add nsw i32 %225, 1
  store i32 %226, i32* %4, align 4
  br label %193

227:                                              ; preds = %193
  br label %228

228:                                              ; preds = %227
  %229 = load i32, i32* %3, align 4
  %230 = add nsw i32 %229, 1
  store i32 %230, i32* %3, align 4
  br label %187

231:                                              ; preds = %187
  br label %232

232:                                              ; preds = %231, %185
  ret void
}

declare dso_local i32 @__isoc99_scanf(i8*, ...) #1

declare dso_local i32 @printf(i8*, ...) #1


!llvm.module.flags = !{!0}
!llvm.ident = !{!1}

!0 = !{i32 1, !"wchar_size", i32 4}
!1 = !{!"clang version 10.0.0-4ubuntu1 "}
